; Function Attrs: mustprogress nounwind uwtable
define dso_local noundef zeroext i1 @_ZNK4llvm18LoopVectorizeHints15allowReorderingEv(ptr noundef nonnull readonly align 8 captures(none) dereferenceable(120) %0) local_unnamed_addr #0 align 2 {
  %2 = getelementptr inbounds nuw i8, ptr %0, i64 8
  %3 = load i32, ptr %2, align 8
  %4 = load i8, ptr getelementptr inbounds nuw (i8, ptr @_ZN4llvm20HintsAllowReorderingE, i64 128), align 8
  %5 = trunc i8 %4 to i1
  br i1 %5, label %6, label %16

6:                                                ; preds = %1
  %7 = getelementptr inbounds nuw i8, ptr %0, i64 40
  %8 = load i32, ptr %7, align 8
  %9 = icmp eq i32 %8, -1
  br i1 %9, label %10, label %_ZNK4llvm18LoopVectorizeHints8getForceEv.exit

10:                                               ; preds = %6
  %11 = getelementptr inbounds nuw i8, ptr %0, i64 104
  %12 = load ptr, ptr %11, align 8
  %13 = tail call noundef zeroext i1 @_ZN4llvm27hasDisableAllTransformsHintEPKNS_4LoopE(ptr noundef %12) #20
  %.pre.i = load i32, ptr %7, align 8
  br i1 %13, label %_ZNK4llvm18LoopVectorizeHints8getForceEv.exit.thread, label %_ZNK4llvm18LoopVectorizeHints8getForceEv.exit

_ZNK4llvm18LoopVectorizeHints8getForceEv.exit:    ; preds = %10, %6
  %.0.i = phi i32 [ %8, %6 ], [ %.pre.i, %10 ]
  %14 = icmp eq i32 %.0.i, 1
  br i1 %14, label %16, label %_ZNK4llvm18LoopVectorizeHints8getForceEv.exit.thread

_ZNK4llvm18LoopVectorizeHints8getForceEv.exit.thread: ; preds = %10, %_ZNK4llvm18LoopVectorizeHints8getForceEv.exit
  %15 = icmp ugt i32 %3, 1
  br label %16

16:                                               ; preds = %_ZNK4llvm18LoopVectorizeHints8getForceEv.exit, %_ZNK4llvm18LoopVectorizeHints8getForceEv.exit.thread, %1
  %17 = phi i1 [ false, %1 ], [ true, %_ZNK4llvm18LoopVectorizeHints8getForceEv.exit ], [ %15, %_ZNK4llvm18LoopVectorizeHints8getForceEv.exit.thread ]
  ret i1 %17
}